target datalayout = "e-m:e-p270:32:32-p271:32:32-p272:64:64-i64:64-i128:128-f80:128-n8:16:32:64-S128"
target triple = "x86_64-pc-linux-gnu"

%struct.pmix_bfrop_type_info_t = type { %struct.pmix_object_t, i16, ptr, ptr, ptr, ptr, ptr }
%struct.pmix_object_t = type { %union.pthread_mutex_t, ptr, i32, %struct.pmix_tma }
%union.pthread_mutex_t = type { %struct.__pthread_mutex_s }
%struct.__pthread_mutex_s = type { i32, i32, i32, i32, i32, i16, i16, %struct.__pthread_internal_list }
%struct.__pthread_internal_list = type { ptr, ptr }
%struct.pmix_tma = type { ptr, ptr, ptr, ptr, ptr, ptr, ptr, ptr }
%struct.pmix_cpuset_t = type { ptr, ptr }
%struct.pmix_pointer_array_t = type { %struct.pmix_object_t, i32, i32, i32, i32, i32, ptr, ptr }

@.str = private unnamed_addr constant [6 x i8] c"hwloc\00", align 1

; Function Attrs: inlinehint nounwind uwtable
define internal ptr @pmix_pointer_array_get_item(ptr noundef %0, i32 noundef %1) #2 {
  %3 = alloca ptr, align 8
  %4 = alloca ptr, align 8
  %5 = alloca i32, align 4
  %6 = alloca ptr, align 8
  %7 = alloca i32, align 4
  store ptr %0, ptr %4, align 8, !tbaa !7
  store i32 %1, ptr %5, align 4, !tbaa !11
  call void @llvm.lifetime.start.p0(i64 8, ptr %6) #8
  %8 = load i32, ptr %5, align 4, !tbaa !11
  %9 = icmp sgt i32 0, %8
  br i1 %9, label %16, label %10

10:                                               ; preds = %2
  %11 = load ptr, ptr %4, align 8, !tbaa !7
  %12 = getelementptr inbounds nuw %struct.pmix_pointer_array_t, ptr %11, i32 0, i32 3
  %13 = load i32, ptr %12, align 8, !tbaa !22
  %14 = load i32, ptr %5, align 4, !tbaa !11
  %15 = icmp sle i32 %13, %14
  br label %16

16:                                               ; preds = %10, %2
  %17 = phi i1 [ true, %2 ], [ %15, %10 ]
  %18 = xor i1 %17, true
  %19 = xor i1 %18, true
  %20 = zext i1 %19 to i32
  %21 = sext i32 %20 to i64
  %22 = call i64 @llvm.expect.i64(i64 %21, i64 0)
  %23 = icmp ne i64 %22, 0
  br i1 %23, label %24, label %25

24:                                               ; preds = %16
  store ptr null, ptr %3, align 8
  store i32 1, ptr %7, align 4
  br label %34

25:                                               ; preds = %16
  %26 = load ptr, ptr %4, align 8, !tbaa !7
  %27 = getelementptr inbounds nuw %struct.pmix_pointer_array_t, ptr %26, i32 0, i32 7
  %28 = load ptr, ptr %27, align 8, !tbaa !25
  %29 = load i32, ptr %5, align 4, !tbaa !11
  %30 = sext i32 %29 to i64
  %31 = getelementptr inbounds ptr, ptr %28, i64 %30
  %32 = load ptr, ptr %31, align 8, !tbaa !3
  store ptr %32, ptr %6, align 8, !tbaa !3
  %33 = load ptr, ptr %6, align 8, !tbaa !3
  store ptr %33, ptr %3, align 8
  store i32 1, ptr %7, align 4
  br label %34

34:                                               ; preds = %25, %24
  call void @llvm.lifetime.end.p0(i64 8, ptr %6) #8
  %35 = load ptr, ptr %3, align 8
  ret ptr %35
}

; Function Attrs: nounwind uwtable
define i32 @pmix_hwloc_pack_cpuset(ptr noundef %0, ptr noundef %1, ptr noundef %2) #0 {
  %4 = alloca i32, align 4
  %5 = alloca ptr, align 8
  %6 = alloca ptr, align 8
  %7 = alloca ptr, align 8
  %8 = alloca ptr, align 8
  %9 = alloca i32, align 4
  %10 = alloca ptr, align 8
  %11 = alloca i32, align 4
  %12 = alloca ptr, align 8
  store ptr %0, ptr %5, align 8, !tbaa !3
  store ptr %1, ptr %6, align 8, !tbaa !3
  store ptr %2, ptr %7, align 8, !tbaa !7
  call void @llvm.lifetime.start.p0(i64 8, ptr %8) #8
  call void @llvm.lifetime.start.p0(i64 4, ptr %9) #8
  %13 = load ptr, ptr %6, align 8, !tbaa !3
  %14 = icmp eq ptr null, %13
  br i1 %14, label %15, label %32

15:                                               ; preds = %3
  store ptr null, ptr %8, align 8, !tbaa !9
  br label %16

16:                                               ; preds = %15
  call void @llvm.lifetime.start.p0(i64 8, ptr %10) #8
  %17 = load ptr, ptr %7, align 8, !tbaa !7
  %18 = call ptr @pmix_pointer_array_get_item(ptr noundef %17, i32 noundef 3)
  store ptr %18, ptr %10, align 8, !tbaa !3
  %19 = load ptr, ptr %10, align 8, !tbaa !3
  %20 = icmp eq ptr null, %19
  br i1 %20, label %21, label %22

21:                                               ; preds = %16
  store i32 -16, ptr %9, align 4, !tbaa !11
  br label %29

22:                                               ; preds = %16
  %23 = load ptr, ptr %10, align 8, !tbaa !3
  %24 = getelementptr inbounds nuw %struct.pmix_bfrop_type_info_t, ptr %23, i32 0, i32 3
  %25 = load ptr, ptr %24, align 8, !tbaa !13
  %26 = load ptr, ptr %7, align 8, !tbaa !7
  %27 = load ptr, ptr %5, align 8, !tbaa !3
  %28 = call i32 %25(ptr noundef %26, ptr noundef %27, ptr noundef %8, i32 noundef 1, i16 noundef zeroext 3)
  store i32 %28, ptr %9, align 4, !tbaa !11
  br label %29

29:                                               ; preds = %22, %21
  call void @llvm.lifetime.end.p0(i64 8, ptr %10) #8
  br label %30

30:                                               ; preds = %29
  br label %31

31:                                               ; preds = %30
  store i32 0, ptr %4, align 4
  store i32 1, ptr %11, align 4
  br label %77

32:                                               ; preds = %3
  %33 = load ptr, ptr %6, align 8, !tbaa !3
  %34 = getelementptr inbounds nuw %struct.pmix_cpuset_t, ptr %33, i32 0, i32 0
  %35 = load ptr, ptr %34, align 8, !tbaa !19
  %36 = icmp ne ptr null, %35
  br i1 %36, label %37, label %44

37:                                               ; preds = %32
  %38 = load ptr, ptr %6, align 8, !tbaa !3
  %39 = getelementptr inbounds nuw %struct.pmix_cpuset_t, ptr %38, i32 0, i32 0
  %40 = load ptr, ptr %39, align 8, !tbaa !19
  %41 = call i32 @strncasecmp(ptr noundef %40, ptr noundef @.str, i64 noundef 5) #9
  %42 = icmp ne i32 0, %41
  br i1 %42, label %43, label %44

43:                                               ; preds = %37
  store i32 -47, ptr %4, align 4
  store i32 1, ptr %11, align 4
  br label %77

44:                                               ; preds = %37, %32
  %45 = load ptr, ptr %6, align 8, !tbaa !3
  %46 = getelementptr inbounds nuw %struct.pmix_cpuset_t, ptr %45, i32 0, i32 1
  %47 = load ptr, ptr %46, align 8, !tbaa !21
  %48 = icmp eq ptr null, %47
  br i1 %48, label %49, label %50

49:                                               ; preds = %44
  store ptr null, ptr %8, align 8, !tbaa !9
  br label %58

50:                                               ; preds = %44
  %51 = load ptr, ptr %6, align 8, !tbaa !3
  %52 = getelementptr inbounds nuw %struct.pmix_cpuset_t, ptr %51, i32 0, i32 1
  %53 = load ptr, ptr %52, align 8, !tbaa !21
  %54 = call i32 @hwloc_bitmap_list_asprintf(ptr noundef %8, ptr noundef %53)
  %55 = icmp ne i32 0, %54
  br i1 %55, label %56, label %57

56:                                               ; preds = %50
  store i32 -1, ptr %4, align 4
  store i32 1, ptr %11, align 4
  br label %77

57:                                               ; preds = %50
  br label %58

58:                                               ; preds = %57, %49
  br label %59

59:                                               ; preds = %58
  call void @llvm.lifetime.start.p0(i64 8, ptr %12) #8
  %60 = load ptr, ptr %7, align 8, !tbaa !7
  %61 = call ptr @pmix_pointer_array_get_item(ptr noundef %60, i32 noundef 3)
  store ptr %61, ptr %12, align 8, !tbaa !3
  %62 = load ptr, ptr %12, align 8, !tbaa !3
  %63 = icmp eq ptr null, %62
  br i1 %63, label %64, label %65

64:                                               ; preds = %59
  store i32 -16, ptr %9, align 4, !tbaa !11
  br label %72

65:                                               ; preds = %59
  %66 = load ptr, ptr %12, align 8, !tbaa !3
  %67 = getelementptr inbounds nuw %struct.pmix_bfrop_type_info_t, ptr %66, i32 0, i32 3
  %68 = load ptr, ptr %67, align 8, !tbaa !13
  %69 = load ptr, ptr %7, align 8, !tbaa !7
  %70 = load ptr, ptr %5, align 8, !tbaa !3
  %71 = call i32 %68(ptr noundef %69, ptr noundef %70, ptr noundef %8, i32 noundef 1, i16 noundef zeroext 3)
  store i32 %71, ptr %9, align 4, !tbaa !11
  br label %72

72:                                               ; preds = %65, %64
  call void @llvm.lifetime.end.p0(i64 8, ptr %12) #8
  br label %73

73:                                               ; preds = %72
  br label %74

74:                                               ; preds = %73
  %75 = load ptr, ptr %8, align 8, !tbaa !9
  call void @free(ptr noundef %75) #8
  %76 = load i32, ptr %9, align 4, !tbaa !11
  store i32 %76, ptr %4, align 4
  store i32 1, ptr %11, align 4
  br label %77

77:                                               ; preds = %74, %56, %43, %31
  call void @llvm.lifetime.end.p0(i64 4, ptr %9) #8
  call void @llvm.lifetime.end.p0(i64 8, ptr %8) #8
  %78 = load i32, ptr %4, align 4
  ret i32 %78
}