; Function Attrs: nounwind uwtable
define i32 @pmix_hwloc_pack_cpuset(ptr noundef %0, ptr noundef readonly captures(address_is_null) %1, ptr noundef %2) local_unnamed_addr #0 {
  %4 = alloca ptr, align 8
  call void @llvm.lifetime.start.p0(i64 8, ptr nonnull %4) #7
  %5 = icmp eq ptr %1, null
  br i1 %5, label %6, label %18

6:                                                ; preds = %3
  store ptr null, ptr %4, align 8, !tbaa !3
  %7 = getelementptr inbounds nuw i8, ptr %2, i64 128
  %8 = load i32, ptr %7, align 8, !tbaa !8
  %.not.i = icmp sgt i32 %8, 3
  br i1 %.not.i, label %pmix_pointer_array_get_item.exit, label %pmix_pointer_array_get_item.exit.thread, !prof !15

pmix_pointer_array_get_item.exit:                 ; preds = %6
  %9 = getelementptr inbounds nuw i8, ptr %2, i64 152
  %10 = load ptr, ptr %9, align 8, !tbaa !16
  %11 = getelementptr inbounds nuw i8, ptr %10, i64 24
  %12 = load ptr, ptr %11, align 8, !tbaa !17
  %13 = icmp eq ptr %12, null
  br i1 %13, label %pmix_pointer_array_get_item.exit.thread, label %14

14:                                               ; preds = %pmix_pointer_array_get_item.exit
  %15 = getelementptr inbounds nuw i8, ptr %12, i64 136
  %16 = load ptr, ptr %15, align 8, !tbaa !18
  %17 = call i32 %16(ptr noundef nonnull %2, ptr noundef %0, ptr noundef nonnull %4, i32 noundef 1, i16 noundef zeroext 3) #7
  br label %pmix_pointer_array_get_item.exit.thread

18:                                               ; preds = %3
  %19 = load ptr, ptr %1, align 8, !tbaa !21
  %.not = icmp eq ptr %19, null
  br i1 %.not, label %22, label %20

20:                                               ; preds = %18
  %21 = tail call i32 @strncasecmp(ptr noundef nonnull %19, ptr noundef nonnull @.str, i64 noundef 5) #8
  %.not22 = icmp eq i32 %21, 0
  br i1 %.not22, label %22, label %pmix_pointer_array_get_item.exit.thread

22:                                               ; preds = %20, %18
  %23 = getelementptr inbounds nuw i8, ptr %1, i64 8
  %24 = load ptr, ptr %23, align 8, !tbaa !23
  %25 = icmp eq ptr %24, null
  br i1 %25, label %26, label %27

26:                                               ; preds = %22
  store ptr null, ptr %4, align 8, !tbaa !3
  br label %29

27:                                               ; preds = %22
  %28 = call i32 @hwloc_bitmap_list_asprintf(ptr noundef nonnull %4, ptr noundef nonnull %24) #7
  %.not23 = icmp eq i32 %28, 0
  br i1 %.not23, label %29, label %pmix_pointer_array_get_item.exit.thread

29:                                               ; preds = %26, %27
  %30 = getelementptr inbounds nuw i8, ptr %2, i64 128
  %31 = load i32, ptr %30, align 8, !tbaa !8
  %.not.i24 = icmp sgt i32 %31, 3
  br i1 %.not.i24, label %pmix_pointer_array_get_item.exit26, label %pmix_pointer_array_get_item.exit26.thread, !prof !15

pmix_pointer_array_get_item.exit26:               ; preds = %29
  %32 = getelementptr inbounds nuw i8, ptr %2, i64 152
  %33 = load ptr, ptr %32, align 8, !tbaa !16
  %34 = getelementptr inbounds nuw i8, ptr %33, i64 24
  %35 = load ptr, ptr %34, align 8, !tbaa !17
  %36 = icmp eq ptr %35, null
  br i1 %36, label %pmix_pointer_array_get_item.exit26.thread, label %37

37:                                               ; preds = %pmix_pointer_array_get_item.exit26
  %38 = getelementptr inbounds nuw i8, ptr %35, i64 136
  %39 = load ptr, ptr %38, align 8, !tbaa !18
  %40 = call i32 %39(ptr noundef nonnull %2, ptr noundef %0, ptr noundef nonnull %4, i32 noundef 1, i16 noundef zeroext 3) #7
  br label %pmix_pointer_array_get_item.exit26.thread

pmix_pointer_array_get_item.exit26.thread:        ; preds = %29, %pmix_pointer_array_get_item.exit26, %37
  %.016 = phi i32 [ %40, %37 ], [ -16, %pmix_pointer_array_get_item.exit26 ], [ -16, %29 ]
  %41 = load ptr, ptr %4, align 8, !tbaa !3
  call void @free(ptr noundef %41) #7
  br label %pmix_pointer_array_get_item.exit.thread

pmix_pointer_array_get_item.exit.thread:          ; preds = %6, %27, %20, %14, %pmix_pointer_array_get_item.exit, %pmix_pointer_array_get_item.exit26.thread
  %.0 = phi i32 [ %.016, %pmix_pointer_array_get_item.exit26.thread ], [ 0, %pmix_pointer_array_get_item.exit ], [ 0, %14 ], [ -47, %20 ], [ -1, %27 ], [ 0, %6 ]
  call void @llvm.lifetime.end.p0(i64 8, ptr nonnull %4) #7
  ret i32 %.0
}